target datalayout = "e-m:e-p270:32:32-p271:32:32-p272:64:64-i64:64-i128:128-f80:128-n8:16:32:64-S128"
target triple = "x86_64-pc-linux-gnu"

%struct.AACArithState = type { [513 x i8], i32, [4 x i8], i16 }

; Function Attrs: nounwind uwtable
define i32 @ff_aac_ac_map_process(ptr noundef %0, i32 noundef %1, i32 noundef %2) #0 {
  %4 = alloca ptr, align 8
  %5 = alloca i32, align 4
  %6 = alloca i32, align 4
  %7 = alloca float, align 4
  %8 = alloca i32, align 4
  %9 = alloca [512 x i8], align 16
  %10 = alloca i32, align 4
  store ptr %0, ptr %4, align 8, !tbaa !4
  store i32 %1, ptr %5, align 4, !tbaa !9
  store i32 %2, ptr %6, align 4, !tbaa !9
  call void @llvm.lifetime.start.p0(i64 4, ptr %7) #6
  %11 = load i32, ptr %5, align 4, !tbaa !9
  %12 = icmp ne i32 %11, 0
  br i1 %12, label %13, label %20

13:                                               ; preds = %3
  %14 = load ptr, ptr %4, align 8, !tbaa !4
  %15 = getelementptr inbounds nuw %struct.AACArithState, ptr %14, i32 0, i32 0
  %16 = getelementptr inbounds [513 x i8], ptr %15, i64 0, i64 0
  call void @llvm.memset.p0.i64(ptr align 4 %16, i8 0, i64 513, i1 false)
  %17 = load i32, ptr %6, align 4, !tbaa !9
  %18 = load ptr, ptr %4, align 8, !tbaa !4
  %19 = getelementptr inbounds nuw %struct.AACArithState, ptr %18, i32 0, i32 1
  store i32 %17, ptr %19, align 4, !tbaa !11
  br label %80

20:                                               ; preds = %3
  %21 = load ptr, ptr %4, align 8, !tbaa !4
  %22 = getelementptr inbounds nuw %struct.AACArithState, ptr %21, i32 0, i32 1
  %23 = load i32, ptr %22, align 4, !tbaa !11
  %24 = load i32, ptr %6, align 4, !tbaa !9
  %25 = icmp ne i32 %23, %24
  br i1 %25, label %26, label %79

26:                                               ; preds = %20
  call void @llvm.lifetime.start.p0(i64 4, ptr %8) #6
  call void @llvm.lifetime.start.p0(i64 512, ptr %9) #6
  %27 = getelementptr inbounds [512 x i8], ptr %9, i64 0, i64 0
  %28 = load ptr, ptr %4, align 8, !tbaa !4
  %29 = getelementptr inbounds nuw %struct.AACArithState, ptr %28, i32 0, i32 0
  %30 = getelementptr inbounds [513 x i8], ptr %29, i64 0, i64 0
  call void @llvm.memcpy.p0.p0.i64(ptr align 16 %27, ptr align 4 %30, i64 512, i1 false)
  %31 = load ptr, ptr %4, align 8, !tbaa !4
  %32 = getelementptr inbounds nuw %struct.AACArithState, ptr %31, i32 0, i32 1
  %33 = load i32, ptr %32, align 4, !tbaa !11
  %34 = sitofp i32 %33 to float
  %35 = load i32, ptr %6, align 4, !tbaa !9
  %36 = sitofp i32 %35 to float
  %37 = fdiv nsz float %34, %36
  store float %37, ptr %7, align 4, !tbaa !14
  store i32 0, ptr %8, align 4, !tbaa !9
  br label %38

38:                                               ; preds = %58, %26
  %39 = load i32, ptr %8, align 4, !tbaa !9
  %40 = load i32, ptr %6, align 4, !tbaa !9
  %41 = sdiv i32 %40, 2
  %42 = icmp slt i32 %39, %41
  br i1 %42, label %43, label %61

43:                                               ; preds = %38
  call void @llvm.lifetime.start.p0(i64 4, ptr %10) #6
  %44 = load i32, ptr %8, align 4, !tbaa !9
  %45 = sitofp i32 %44 to float
  %46 = load float, ptr %7, align 4, !tbaa !14
  %47 = fmul nsz float %45, %46
  %48 = fptosi float %47 to i32
  store i32 %48, ptr %10, align 4, !tbaa !9
  %49 = load i32, ptr %10, align 4, !tbaa !9
  %50 = sext i32 %49 to i64
  %51 = getelementptr inbounds [512 x i8], ptr %9, i64 0, i64 %50
  %52 = load i8, ptr %51, align 1, !tbaa !16
  %53 = load ptr, ptr %4, align 8, !tbaa !4
  %54 = getelementptr inbounds nuw %struct.AACArithState, ptr %53, i32 0, i32 0
  %55 = load i32, ptr %8, align 4, !tbaa !9
  %56 = sext i32 %55 to i64
  %57 = getelementptr inbounds [513 x i8], ptr %54, i64 0, i64 %56
  store i8 %52, ptr %57, align 1, !tbaa !16
  call void @llvm.lifetime.end.p0(i64 4, ptr %10) #6
  br label %58

58:                                               ; preds = %43
  %59 = load i32, ptr %8, align 4, !tbaa !9
  %60 = add nsw i32 %59, 1
  store i32 %60, ptr %8, align 4, !tbaa !9
  br label %38, !llvm.loop !17

61:                                               ; preds = %38
  br label %62

62:                                               ; preds = %72, %61
  %63 = load i32, ptr %8, align 4, !tbaa !9
  %64 = sext i32 %63 to i64
  %65 = icmp ult i64 %64, 513
  br i1 %65, label %66, label %75

66:                                               ; preds = %62
  %67 = load ptr, ptr %4, align 8, !tbaa !4
  %68 = getelementptr inbounds nuw %struct.AACArithState, ptr %67, i32 0, i32 0
  %69 = load i32, ptr %8, align 4, !tbaa !9
  %70 = sext i32 %69 to i64
  %71 = getelementptr inbounds [513 x i8], ptr %68, i64 0, i64 %70
  store i8 0, ptr %71, align 1, !tbaa !16
  br label %72

72:                                               ; preds = %66
  %73 = load i32, ptr %8, align 4, !tbaa !9
  %74 = add nsw i32 %73, 1
  store i32 %74, ptr %8, align 4, !tbaa !9
  br label %62, !llvm.loop !19

75:                                               ; preds = %62
  %76 = load i32, ptr %6, align 4, !tbaa !9
  %77 = load ptr, ptr %4, align 8, !tbaa !4
  %78 = getelementptr inbounds nuw %struct.AACArithState, ptr %77, i32 0, i32 1
  store i32 %76, ptr %78, align 4, !tbaa !11
  call void @llvm.lifetime.end.p0(i64 512, ptr %9) #6
  call void @llvm.lifetime.end.p0(i64 4, ptr %8) #6
  br label %79

79:                                               ; preds = %75, %20
  br label %80

80:                                               ; preds = %79, %13
  %81 = load ptr, ptr %4, align 8, !tbaa !4
  %82 = getelementptr inbounds nuw %struct.AACArithState, ptr %81, i32 0, i32 2
  %83 = getelementptr inbounds [4 x i8], ptr %82, i64 0, i64 3
  store i8 0, ptr %83, align 1, !tbaa !16
  %84 = load ptr, ptr %4, align 8, !tbaa !4
  %85 = getelementptr inbounds nuw %struct.AACArithState, ptr %84, i32 0, i32 2
  %86 = getelementptr inbounds [4 x i8], ptr %85, i64 0, i64 2
  store i8 0, ptr %86, align 2, !tbaa !16
  %87 = load ptr, ptr %4, align 8, !tbaa !4
  %88 = getelementptr inbounds nuw %struct.AACArithState, ptr %87, i32 0, i32 2
  %89 = getelementptr inbounds [4 x i8], ptr %88, i64 0, i64 1
  store i8 0, ptr %89, align 1, !tbaa !16
  %90 = load ptr, ptr %4, align 8, !tbaa !4
  %91 = getelementptr inbounds nuw %struct.AACArithState, ptr %90, i32 0, i32 2
  %92 = getelementptr inbounds [4 x i8], ptr %91, i64 0, i64 0
  store i8 1, ptr %92, align 4, !tbaa !16
  %93 = load ptr, ptr %4, align 8, !tbaa !4
  %94 = getelementptr inbounds nuw %struct.AACArithState, ptr %93, i32 0, i32 0
  %95 = getelementptr inbounds [513 x i8], ptr %94, i64 0, i64 0
  %96 = load i8, ptr %95, align 4, !tbaa !16
  %97 = zext i8 %96 to i32
  %98 = shl i32 %97, 12
  %99 = trunc i32 %98 to i16
  %100 = load ptr, ptr %4, align 8, !tbaa !4
  %101 = getelementptr inbounds nuw %struct.AACArithState, ptr %100, i32 0, i32 3
  store i16 %99, ptr %101, align 4, !tbaa !20
  %102 = load ptr, ptr %4, align 8, !tbaa !4
  %103 = getelementptr inbounds nuw %struct.AACArithState, ptr %102, i32 0, i32 0
  %104 = getelementptr inbounds [513 x i8], ptr %103, i64 0, i64 0
  %105 = load i8, ptr %104, align 4, !tbaa !16
  %106 = zext i8 %105 to i32
  %107 = shl i32 %106, 12
  call void @llvm.lifetime.end.p0(i64 4, ptr %7) #6
  ret i32 %107
}