; Function Attrs: nofree norecurse nosync nounwind memory(argmem: readwrite) uwtable
define range(i32 0, 1044481) i32 @ff_aac_ac_map_process(ptr noundef captures(none) %0, i32 noundef %1, i32 noundef %2) local_unnamed_addr #0 {
  %4 = alloca [512 x i8], align 16
  %.not = icmp eq i32 %1, 0
  br i1 %.not, label %7, label %5

5:                                                ; preds = %3
  tail call void @llvm.memset.p0.i64(ptr noundef nonnull align 4 dereferenceable(513) %0, i8 0, i64 513, i1 false)
  %6 = getelementptr inbounds nuw i8, ptr %0, i64 516
  store i32 %2, ptr %6, align 4, !tbaa !4
  br label %27

7:                                                ; preds = %3
  %8 = getelementptr inbounds nuw i8, ptr %0, i64 516
  %9 = load i32, ptr %8, align 4, !tbaa !4
  %.not31 = icmp eq i32 %9, %2
  br i1 %.not31, label %27, label %10

10:                                               ; preds = %7
  call void @llvm.lifetime.start.p0(i64 512, ptr nonnull %4) #10
  call void @llvm.memcpy.p0.p0.i64(ptr noundef nonnull align 16 dereferenceable(512) %4, ptr noundef nonnull align 4 dereferenceable(512) %0, i64 512, i1 false)
  %11 = sitofp i32 %9 to float
  %12 = sitofp i32 %2 to float
  %13 = fdiv nsz float %11, %12
  %14 = sdiv i32 %2, 2
  %15 = icmp sgt i32 %2, 1
  br i1 %15, label %.lr.ph.preheader, label %.lr.ph34.preheader

.lr.ph.preheader:                                 ; preds = %10
  %wide.trip.count = zext nneg i32 %14 to i64
  br label %.lr.ph

.preheader:                                       ; preds = %.lr.ph
  %16 = icmp samesign ult i32 %14, 513
  br i1 %16, label %.lr.ph34.preheader, label %._crit_edge

.lr.ph34.preheader:                               ; preds = %10, %.preheader
  %.0.lcssa40 = phi i32 [ %14, %.preheader ], [ 0, %10 ]
  %17 = zext nneg i32 %.0.lcssa40 to i64
  %scevgep = getelementptr i8, ptr %0, i64 %17
  %narrow = sub nuw nsw i32 513, %.0.lcssa40
  %18 = zext nneg i32 %narrow to i64
  tail call void @llvm.memset.p0.i64(ptr align 1 %scevgep, i8 0, i64 %18, i1 false), !tbaa !10
  br label %._crit_edge

.lr.ph:                                           ; preds = %.lr.ph.preheader, %.lr.ph
  %indvars.iv = phi i64 [ 0, %.lr.ph.preheader ], [ %indvars.iv.next, %.lr.ph ]
  %19 = trunc nuw nsw i64 %indvars.iv to i32
  %20 = uitofp nneg i32 %19 to float
  %21 = fmul nsz float %13, %20
  %22 = fptosi float %21 to i32
  %23 = sext i32 %22 to i64
  %24 = getelementptr inbounds [512 x i8], ptr %4, i64 0, i64 %23
  %25 = load i8, ptr %24, align 1, !tbaa !10
  %26 = getelementptr inbounds nuw [513 x i8], ptr %0, i64 0, i64 %indvars.iv
  store i8 %25, ptr %26, align 1, !tbaa !10
  %indvars.iv.next = add nuw nsw i64 %indvars.iv, 1
  %exitcond.not = icmp eq i64 %indvars.iv.next, %wide.trip.count
  br i1 %exitcond.not, label %.preheader, label %.lr.ph, !llvm.loop !11

._crit_edge:                                      ; preds = %.lr.ph34.preheader, %.preheader
  store i32 %2, ptr %8, align 4, !tbaa !4
  call void @llvm.lifetime.end.p0(i64 512, ptr nonnull %4) #10
  br label %27

27:                                               ; preds = %7, %._crit_edge, %5
  %28 = getelementptr inbounds nuw i8, ptr %0, i64 520
  %29 = getelementptr inbounds nuw i8, ptr %0, i64 523
  store i8 0, ptr %29, align 1, !tbaa !10
  %30 = getelementptr inbounds nuw i8, ptr %0, i64 522
  store i8 0, ptr %30, align 2, !tbaa !10
  %31 = getelementptr inbounds nuw i8, ptr %0, i64 521
  store i8 0, ptr %31, align 1, !tbaa !10
  store i8 1, ptr %28, align 4, !tbaa !10
  %32 = load i8, ptr %0, align 4, !tbaa !10
  %33 = zext i8 %32 to i16
  %34 = shl i16 %33, 12
  %35 = getelementptr inbounds nuw i8, ptr %0, i64 524
  store i16 %34, ptr %35, align 4, !tbaa !13
  %36 = zext i8 %32 to i32
  %37 = shl nuw nsw i32 %36, 12
  ret i32 %37
}